target datalayout = "e-m:e-p270:32:32-p271:32:32-p272:64:64-i64:64-i128:128-f80:128-n8:16:32:64-S128"
target triple = "x86_64-pc-linux-gnu"

%struct.BrinOpcInfo = type { i16, i8, ptr, [0 x ptr] }
%struct.BrinDesc = type { ptr, ptr, ptr, ptr, i32, [0 x ptr] }
%struct.FormData_pg_attribute = type { i32, %struct.nameData, i32, i16, i16, i32, i16, i8, i8, i8, i8, i8, i8, i8, i8, i8, i8, i8, i16, i32 }
%struct.nameData = type { [64 x i8] }
%struct.TupleDescData = type { i32, i32, i32, i32, ptr, [0 x %struct.CompactAttribute] }
%struct.CompactAttribute = type { i32, i16, i8, i8, i8, i8, i8, i8, i8 }
%struct.MinmaxOpaque = type { i32, [5 x %struct.FmgrInfo] }
%struct.FmgrInfo = type { ptr, i32, i16, i8, i8, i8, ptr, ptr, ptr }
%struct.RelationData = type { %struct.RelFileLocator, ptr, i32, i32, i8, i8, i8, i8, i8, i32, i32, i32, i32, ptr, ptr, i32, %struct.LockInfoData, ptr, ptr, ptr, ptr, ptr, i8, ptr, ptr, ptr, ptr, ptr, ptr, i32, ptr, i8, ptr, ptr, i32, i8, i32, ptr, i8, ptr, ptr, ptr, ptr, ptr, ptr, ptr, i32, ptr, ptr, ptr, ptr, ptr, ptr, ptr, ptr, ptr, ptr, ptr, ptr, ptr, ptr, ptr, ptr, ptr, ptr, ptr, i32, i8, ptr }
%struct.RelFileLocator = type { i32, i32, i32 }
%struct.LockInfoData = type { %struct.LockRelId }
%struct.LockRelId = type { i32, i32 }

@.str.1 = private unnamed_addr constant [14 x i8] c"brin_minmax.c\00", align 1
@.str.2 = private unnamed_addr constant [42 x i8] c"missing operator %d(%u,%u) in opfamily %u\00", align 1
@__func__.minmax_get_strategy_procinfo = private unnamed_addr constant [29 x i8] c"minmax_get_strategy_procinfo\00", align 1

; Function Attrs: inlinehint nounwind uwtable
define internal i32 @DatumGetObjectId(i64 noundef %0) #2 {
  %2 = alloca i64, align 8
  store i64 %0, ptr %2, align 8
  %3 = load i64, ptr %2, align 8
  %4 = trunc i64 %3 to i32
  ret i32 %4
}

; Function Attrs: inlinehint nounwind uwtable
define internal i64 @Int16GetDatum(i16 noundef signext %0) #2 {
  %2 = alloca i16, align 2
  store i16 %0, ptr %2, align 2
  %3 = load i16, ptr %2, align 2
  %4 = sext i16 %3 to i64
  ret i64 %4
}

; Function Attrs: inlinehint nounwind uwtable
define internal i64 @ObjectIdGetDatum(i32 noundef %0) #2 {
  %2 = alloca i32, align 4
  store i32 %0, ptr %2, align 4
  %3 = load i32, ptr %2, align 4
  %4 = zext i32 %3 to i64
  ret i64 %4
}

; Function Attrs: inlinehint nounwind uwtable
define internal ptr @TupleDescAttr(ptr noundef %0, i32 noundef %1) #2 {
  %3 = alloca ptr, align 8
  %4 = alloca i32, align 4
  %5 = alloca ptr, align 8
  store ptr %0, ptr %3, align 8
  store i32 %1, ptr %4, align 4
  call void @llvm.lifetime.start.p0(i64 8, ptr %5) #5
  %6 = load ptr, ptr %3, align 8
  %7 = load ptr, ptr %3, align 8
  %8 = getelementptr inbounds nuw %struct.TupleDescData, ptr %7, i32 0, i32 0
  %9 = load i32, ptr %8, align 8
  %10 = sext i32 %9 to i64
  %11 = mul i64 %10, 16
  %12 = add i64 24, %11
  %13 = getelementptr inbounds nuw i8, ptr %6, i64 %12
  store ptr %13, ptr %5, align 8
  %14 = load ptr, ptr %5, align 8
  %15 = load i32, ptr %4, align 4
  %16 = sext i32 %15 to i64
  %17 = getelementptr inbounds %struct.FormData_pg_attribute, ptr %14, i64 %16
  call void @llvm.lifetime.end.p0(i64 8, ptr %5) #5
  ret ptr %17
}

; Function Attrs: nounwind uwtable
define internal ptr @minmax_get_strategy_procinfo(ptr noundef %0, i16 noundef zeroext %1, i32 noundef %2, i16 noundef zeroext %3) #0 {
  %5 = alloca ptr, align 8
  %6 = alloca i16, align 2
  %7 = alloca i32, align 4
  %8 = alloca i16, align 2
  %9 = alloca ptr, align 8
  %10 = alloca i16, align 2
  %11 = alloca ptr, align 8
  %12 = alloca ptr, align 8
  %13 = alloca i32, align 4
  %14 = alloca i32, align 4
  store ptr %0, ptr %5, align 8
  store i16 %1, ptr %6, align 2
  store i32 %2, ptr %7, align 4
  store i16 %3, ptr %8, align 2
  call void @llvm.lifetime.start.p0(i64 8, ptr %9) #5
  %15 = load ptr, ptr %5, align 8
  %16 = getelementptr inbounds nuw %struct.BrinDesc, ptr %15, i32 0, i32 5
  %17 = load i16, ptr %6, align 2
  %18 = zext i16 %17 to i32
  %19 = sub i32 %18, 1
  %20 = sext i32 %19 to i64
  %21 = getelementptr inbounds [0 x ptr], ptr %16, i64 0, i64 %20
  %22 = load ptr, ptr %21, align 8
  %23 = getelementptr inbounds nuw %struct.BrinOpcInfo, ptr %22, i32 0, i32 2
  %24 = load ptr, ptr %23, align 8
  store ptr %24, ptr %9, align 8
  %25 = load ptr, ptr %9, align 8
  %26 = getelementptr inbounds nuw %struct.MinmaxOpaque, ptr %25, i32 0, i32 0
  %27 = load i32, ptr %26, align 8
  %28 = load i32, ptr %7, align 4
  %29 = icmp ne i32 %27, %28
  br i1 %29, label %30, label %51

30:                                               ; preds = %4
  call void @llvm.lifetime.start.p0(i64 2, ptr %10) #5
  store i16 1, ptr %10, align 2
  br label %31

31:                                               ; preds = %44, %30
  %32 = load i16, ptr %10, align 2
  %33 = zext i16 %32 to i32
  %34 = icmp sle i32 %33, 5
  br i1 %34, label %35, label %47

35:                                               ; preds = %31
  %36 = load ptr, ptr %9, align 8
  %37 = getelementptr inbounds nuw %struct.MinmaxOpaque, ptr %36, i32 0, i32 1
  %38 = load i16, ptr %10, align 2
  %39 = zext i16 %38 to i32
  %40 = sub i32 %39, 1
  %41 = sext i32 %40 to i64
  %42 = getelementptr inbounds [5 x %struct.FmgrInfo], ptr %37, i64 0, i64 %41
  %43 = getelementptr inbounds nuw %struct.FmgrInfo, ptr %42, i32 0, i32 1
  store i32 0, ptr %43, align 8
  br label %44

44:                                               ; preds = %35
  %45 = load i16, ptr %10, align 2
  %46 = add i16 %45, 1
  store i16 %46, ptr %10, align 2
  br label %31, !llvm.loop !6

47:                                               ; preds = %31
  %48 = load i32, ptr %7, align 4
  %49 = load ptr, ptr %9, align 8
  %50 = getelementptr inbounds nuw %struct.MinmaxOpaque, ptr %49, i32 0, i32 0
  store i32 %48, ptr %50, align 8
  call void @llvm.lifetime.end.p0(i64 2, ptr %10) #5
  br label %51

51:                                               ; preds = %47, %4
  %52 = load ptr, ptr %9, align 8
  %53 = getelementptr inbounds nuw %struct.MinmaxOpaque, ptr %52, i32 0, i32 1
  %54 = load i16, ptr %8, align 2
  %55 = zext i16 %54 to i32
  %56 = sub i32 %55, 1
  %57 = sext i32 %56 to i64
  %58 = getelementptr inbounds [5 x %struct.FmgrInfo], ptr %53, i64 0, i64 %57
  %59 = getelementptr inbounds nuw %struct.FmgrInfo, ptr %58, i32 0, i32 1
  %60 = load i32, ptr %59, align 8
  %61 = icmp eq i32 %60, 0
  br i1 %61, label %62, label %129

62:                                               ; preds = %51
  call void @llvm.lifetime.start.p0(i64 8, ptr %11) #5
  call void @llvm.lifetime.start.p0(i64 8, ptr %12) #5
  call void @llvm.lifetime.start.p0(i64 4, ptr %13) #5
  call void @llvm.lifetime.start.p0(i64 4, ptr %14) #5
  %63 = load ptr, ptr %5, align 8
  %64 = getelementptr inbounds nuw %struct.BrinDesc, ptr %63, i32 0, i32 1
  %65 = load ptr, ptr %64, align 8
  %66 = getelementptr inbounds nuw %struct.RelationData, ptr %65, i32 0, i32 52
  %67 = load ptr, ptr %66, align 8
  %68 = load i16, ptr %6, align 2
  %69 = zext i16 %68 to i32
  %70 = sub i32 %69, 1
  %71 = sext i32 %70 to i64
  %72 = getelementptr inbounds i32, ptr %67, i64 %71
  %73 = load i32, ptr %72, align 4
  store i32 %73, ptr %13, align 4
  %74 = load ptr, ptr %5, align 8
  %75 = getelementptr inbounds nuw %struct.BrinDesc, ptr %74, i32 0, i32 2
  %76 = load ptr, ptr %75, align 8
  %77 = load i16, ptr %6, align 2
  %78 = zext i16 %77 to i32
  %79 = sub i32 %78, 1
  %80 = call ptr @TupleDescAttr(ptr noundef %76, i32 noundef %79)
  store ptr %80, ptr %11, align 8
  %81 = load i32, ptr %13, align 4
  %82 = call i64 @ObjectIdGetDatum(i32 noundef %81)
  %83 = load ptr, ptr %11, align 8
  %84 = getelementptr inbounds nuw %struct.FormData_pg_attribute, ptr %83, i32 0, i32 2
  %85 = load i32, ptr %84, align 4
  %86 = call i64 @ObjectIdGetDatum(i32 noundef %85)
  %87 = load i32, ptr %7, align 4
  %88 = call i64 @ObjectIdGetDatum(i32 noundef %87)
  %89 = load i16, ptr %8, align 2
  %90 = call i64 @Int16GetDatum(i16 noundef signext %89)
  %91 = call ptr @SearchSysCache4(i32 noundef 4, i64 noundef %82, i64 noundef %86, i64 noundef %88, i64 noundef %90)
  store ptr %91, ptr %12, align 8
  %92 = load ptr, ptr %12, align 8
  %93 = icmp ne ptr %92, null
  br i1 %93, label %112, label %94

94:                                               ; preds = %62
  br label %95

95:                                               ; preds = %94
  br i1 true, label %96, label %98

96:                                               ; preds = %95
  %97 = call zeroext i1 @errstart_cold(i32 noundef 21, ptr noundef null) #6
  br i1 %97, label %100, label %109

98:                                               ; preds = %95
  %99 = call zeroext i1 @errstart(i32 noundef 21, ptr noundef null)
  br i1 %99, label %100, label %109

100:                                              ; preds = %98, %96
  %101 = load i16, ptr %8, align 2
  %102 = zext i16 %101 to i32
  %103 = load ptr, ptr %11, align 8
  %104 = getelementptr inbounds nuw %struct.FormData_pg_attribute, ptr %103, i32 0, i32 2
  %105 = load i32, ptr %104, align 4
  %106 = load i32, ptr %7, align 4
  %107 = load i32, ptr %13, align 4
  %108 = call i32 (ptr, ...) @errmsg_internal(ptr noundef @.str.2, i32 noundef %102, i32 noundef %105, i32 noundef %106, i32 noundef %107)
  call void @errfinish(ptr noundef @.str.1, i32 noundef 301, ptr noundef @__func__.minmax_get_strategy_procinfo)
  br label %109

109:                                              ; preds = %100, %98, %96
  unreachable

110:                                              ; No predecessors!
  br label %111

111:                                              ; preds = %110
  br label %112

112:                                              ; preds = %111, %62
  %113 = load ptr, ptr %12, align 8
  %114 = call i64 @SysCacheGetAttrNotNull(i32 noundef 4, ptr noundef %113, i16 noundef signext 7)
  %115 = call i32 @DatumGetObjectId(i64 noundef %114)
  store i32 %115, ptr %14, align 4
  %116 = load ptr, ptr %12, align 8
  call void @ReleaseSysCache(ptr noundef %116)
  %117 = load i32, ptr %14, align 4
  %118 = call i32 @get_opcode(i32 noundef %117)
  %119 = load ptr, ptr %9, align 8
  %120 = getelementptr inbounds nuw %struct.MinmaxOpaque, ptr %119, i32 0, i32 1
  %121 = load i16, ptr %8, align 2
  %122 = zext i16 %121 to i32
  %123 = sub i32 %122, 1
  %124 = sext i32 %123 to i64
  %125 = getelementptr inbounds [5 x %struct.FmgrInfo], ptr %120, i64 0, i64 %124
  %126 = load ptr, ptr %5, align 8
  %127 = getelementptr inbounds nuw %struct.BrinDesc, ptr %126, i32 0, i32 0
  %128 = load ptr, ptr %127, align 8
  call void @fmgr_info_cxt(i32 noundef %118, ptr noundef %125, ptr noundef %128)
  call void @llvm.lifetime.end.p0(i64 4, ptr %14) #5
  call void @llvm.lifetime.end.p0(i64 4, ptr %13) #5
  call void @llvm.lifetime.end.p0(i64 8, ptr %12) #5
  call void @llvm.lifetime.end.p0(i64 8, ptr %11) #5
  br label %129

129:                                              ; preds = %112, %51
  %130 = load ptr, ptr %9, align 8
  %131 = getelementptr inbounds nuw %struct.MinmaxOpaque, ptr %130, i32 0, i32 1
  %132 = load i16, ptr %8, align 2
  %133 = zext i16 %132 to i32
  %134 = sub i32 %133, 1
  %135 = sext i32 %134 to i64
  %136 = getelementptr inbounds [5 x %struct.FmgrInfo], ptr %131, i64 0, i64 %135
  call void @llvm.lifetime.end.p0(i64 8, ptr %9) #5
  ret ptr %136
}