; Function Attrs: nounwind uwtable
define internal fastcc nonnull ptr @minmax_get_strategy_procinfo(ptr noundef readonly captures(none) %0, i16 noundef zeroext %1, i32 noundef %2, i16 noundef zeroext %3) unnamed_addr #0 {
  %5 = getelementptr inbounds nuw i8, ptr %0, i64 40
  %6 = zext i16 %1 to i64
  %7 = add nsw i64 %6, -1
  %8 = getelementptr inbounds [0 x ptr], ptr %5, i64 0, i64 %7
  %9 = load ptr, ptr %8, align 8
  %10 = getelementptr inbounds nuw i8, ptr %9, i64 8
  %11 = load ptr, ptr %10, align 8
  %12 = load i32, ptr %11, align 8
  %.not = icmp eq i32 %12, %2
  br i1 %.not, label %18, label %.preheader

.preheader:                                       ; preds = %4
  %13 = getelementptr i8, ptr %11, i64 -32
  br label %14

14:                                               ; preds = %.preheader, %14
  %indvars.iv = phi i64 [ 1, %.preheader ], [ %indvars.iv.next, %14 ]
  %15 = mul nuw nsw i64 %indvars.iv, 48
  %16 = getelementptr i8, ptr %13, i64 %15
  store i32 0, ptr %16, align 8
  %indvars.iv.next = add nuw nsw i64 %indvars.iv, 1
  %exitcond.not = icmp eq i64 %indvars.iv.next, 6
  br i1 %exitcond.not, label %17, label %14, !llvm.loop !6

17:                                               ; preds = %14
  store i32 %2, ptr %11, align 8
  br label %18

18:                                               ; preds = %17, %4
  %19 = getelementptr inbounds nuw i8, ptr %11, i64 8
  %20 = zext i16 %3 to i32
  %21 = add nsw i32 %20, -1
  %22 = sext i32 %21 to i64
  %23 = getelementptr inbounds [5 x %struct.FmgrInfo], ptr %19, i64 0, i64 %22
  %24 = getelementptr inbounds nuw i8, ptr %23, i64 8
  %25 = load i32, ptr %24, align 8
  %26 = icmp eq i32 %25, 0
  br i1 %26, label %27, label %57

27:                                               ; preds = %18
  %28 = getelementptr inbounds nuw i8, ptr %0, i64 8
  %29 = load ptr, ptr %28, align 8
  %30 = getelementptr inbounds nuw i8, ptr %29, i64 360
  %31 = load ptr, ptr %30, align 8
  %32 = getelementptr inbounds i32, ptr %31, i64 %7
  %33 = load i32, ptr %32, align 4
  %34 = getelementptr inbounds nuw i8, ptr %0, i64 16
  %35 = load ptr, ptr %34, align 8
  %36 = load i32, ptr %35, align 8
  %37 = sext i32 %36 to i64
  %38 = shl nsw i64 %37, 4
  %39 = getelementptr i8, ptr %35, i64 %38
  %40 = zext i32 %33 to i64
  %.idx = mul nsw i64 %7, 100
  %41 = getelementptr i8, ptr %39, i64 92
  %42 = getelementptr i8, ptr %41, i64 %.idx
  %43 = load i32, ptr %42, align 4
  %44 = zext i32 %43 to i64
  %45 = zext i32 %2 to i64
  %46 = sext i16 %3 to i64
  %47 = tail call ptr @SearchSysCache4(i32 noundef 4, i64 noundef %40, i64 noundef %44, i64 noundef %45, i64 noundef %46) #4
  %.not35 = icmp eq ptr %47, null
  br i1 %.not35, label %48, label %52

48:                                               ; preds = %27
  %49 = tail call zeroext i1 @errstart_cold(i32 noundef 21, ptr noundef null) #5
  tail call void @llvm.assume(i1 %49)
  %50 = load i32, ptr %42, align 4
  %51 = tail call i32 (ptr, ...) @errmsg_internal(ptr noundef nonnull @.str.2, i32 noundef %20, i32 noundef %50, i32 noundef %2, i32 noundef %33) #4
  tail call void @errfinish(ptr noundef nonnull @.str.1, i32 noundef 301, ptr noundef nonnull @__func__.minmax_get_strategy_procinfo) #4
  unreachable

52:                                               ; preds = %27
  %53 = tail call i64 @SysCacheGetAttrNotNull(i32 noundef 4, ptr noundef nonnull %47, i16 noundef signext 7) #4
  %54 = trunc i64 %53 to i32
  tail call void @ReleaseSysCache(ptr noundef nonnull %47) #4
  %55 = tail call i32 @get_opcode(i32 noundef %54) #4
  %56 = load ptr, ptr %0, align 8
  tail call void @fmgr_info_cxt(i32 noundef %55, ptr noundef nonnull %23, ptr noundef %56) #4
  br label %57

57:                                               ; preds = %52, %18
  ret ptr %23
}